; Function Attrs: mustprogress nounwind uwtable
define hidden void @_ZN11FileMapInfo33validate_non_existent_class_pathsEv(ptr nocapture noundef nonnull readonly align 8 dereferenceable(40) %0) local_unnamed_addr #0 align 2 {
  %2 = getelementptr inbounds i8, ptr %0, i64 32
  %3 = load ptr, ptr %2, align 8
  %4 = getelementptr inbounds i8, ptr %3, i64 714
  %5 = load i16, ptr %4, align 2
  %6 = sext i16 %5 to i32
  %7 = getelementptr inbounds i8, ptr %3, i64 720
  %8 = load i32, ptr %7, align 8
  %9 = add i32 %8, %6
  %10 = sext i32 %9 to i64
  br label %11

11:                                               ; preds = %43, %1
  %indvars.iv = phi i64 [ %indvars.iv.next, %43 ], [ %10, %1 ]
  %12 = load ptr, ptr @_ZN11FileMapInfo18_shared_path_tableE, align 8
  %13 = icmp eq ptr %12, null
  br i1 %13, label %_ZN11FileMapInfo26get_number_of_shared_pathsEv.exit, label %14

14:                                               ; preds = %11
  %15 = load i32, ptr %12, align 8
  br label %_ZN11FileMapInfo26get_number_of_shared_pathsEv.exit

_ZN11FileMapInfo26get_number_of_shared_pathsEv.exit: ; preds = %11, %14
  %16 = phi i32 [ %15, %14 ], [ 0, %11 ]
  %17 = sext i32 %16 to i64
  %18 = icmp slt i64 %indvars.iv, %17
  br i1 %18, label %19, label %44

19:                                               ; preds = %_ZN11FileMapInfo26get_number_of_shared_pathsEv.exit
  %20 = getelementptr inbounds i8, ptr %12, i64 8
  %21 = getelementptr inbounds ptr, ptr %20, i64 %indvars.iv
  %22 = load ptr, ptr %21, align 8
  %23 = tail call noundef zeroext i1 @_ZNK20SharedClassPathEntry18check_non_existentEv(ptr noundef nonnull align 8 dereferenceable(40) %22)
  br i1 %23, label %43, label %24

24:                                               ; preds = %19
  %25 = load volatile ptr, ptr getelementptr inbounds (i8, ptr @_ZN16LogTagSetMappingILN6LogTag4typeE14ELS1_0ELS1_0ELS1_0ELS1_0ELS1_0EE7_tagsetE, i64 72), align 8
  %.not = icmp eq ptr %25, null
  br i1 %.not, label %40, label %26

26:                                               ; preds = %24
  %27 = tail call noundef zeroext i1 @_ZN9CDSConfig16is_using_archiveEv() #25
  %28 = load i8, ptr %22, align 8
  %29 = icmp eq i8 %28, 0
  %or.cond.i = select i1 %27, i1 %29, i1 false
  br i1 %or.cond.i, label %30, label %36

30:                                               ; preds = %26
  %31 = load ptr, ptr @_ZN11ClassLoader10_jrt_entryE, align 8
  %32 = load ptr, ptr %31, align 8
  %33 = getelementptr inbounds i8, ptr %32, i64 40
  %34 = load ptr, ptr %33, align 8
  %35 = tail call noundef ptr %34(ptr noundef nonnull align 8 dereferenceable(16) %31) #25
  br label %_ZNK20SharedClassPathEntry4nameEv.exit

36:                                               ; preds = %26
  %37 = getelementptr inbounds i8, ptr %22, i64 24
  %38 = load ptr, ptr %37, align 8
  %39 = getelementptr inbounds i8, ptr %38, i64 4
  br label %_ZNK20SharedClassPathEntry4nameEv.exit

_ZNK20SharedClassPathEntry4nameEv.exit:           ; preds = %30, %36
  %.0.i = phi ptr [ %35, %30 ], [ %39, %36 ]
  tail call void (ptr, ...) @_ZN7LogImplILN6LogTag4typeE14ELS1_0ELS1_0ELS1_0ELS1_0ELS1_0EE5writeILN8LogLevel4typeE4EEEvPKcz(ptr noundef nonnull @.str.85, ptr noundef %.0.i)
  br label %40

40:                                               ; preds = %24, %_ZNK20SharedClassPathEntry4nameEv.exit
  %41 = load ptr, ptr %2, align 8
  %42 = getelementptr inbounds i8, ptr %41, i64 726
  store i8 0, ptr %42, align 2
  br label %43

43:                                               ; preds = %19, %40
  %indvars.iv.next = add nsw i64 %indvars.iv, 1
  br label %11, !llvm.loop !26

44:                                               ; preds = %_ZN11FileMapInfo26get_number_of_shared_pathsEv.exit
  ret void
}